(dp1
S'output'
p2
S"<type 'exceptions.AttributeError'> 'Auth' object has no attribute 'uder_id'"
p3
sS'layer'
p4
S'/Users/Mvelasquez/Desktop/project-bacon/applications/project_bacon/views/default/game.html'
p5
sS'code'
p6
S'response.write(\'\\n\', escape=False)\nresponse.write(\'<!DOCTYPE html>\\n<!--[if (gt IE 9)|!(IE)]><!--> <html class="no-js" lang="\', escape=False)\nresponse.write(T.accepted_language or \'en\')\nresponse.write(\'"> <!--<![endif]-->\\n  <head>\\n    <title>The Game of Bacon</title>\\n    <meta charset="utf-8">\\n    <!-- www.phpied.com/conditional-comments-block-downloads/ -->\\n    <!-- Always force latest IE rendering engine\\n         (even in intranet) & Chrome Frame\\n         Remove this if you use the .htaccess -->\\n    <meta http-equiv="X-UA-Compatible" content="IE=edge\', escape=False)\nresponse.write(not request.is_local and \',chrome=1\' or \'\')\nresponse.write(\'">\\n    <!--  Mobile Viewport Fix\\n          j.mp/mobileviewport & davidbcalhoun.com/2010/viewport-metatag\\n          device-width: Occupy full width of the screen in its current orientation\\n          initial-scale = 1.0 retains dimensions instead of zooming out if page height > device height\\n          user-scalable = yes allows the user to zoom in -->\\n    <meta name="viewport" content="width=device-width, initial-scale=1.0">\\n    <title>\', escape=False)\nresponse.write(response.title or request.application)\nresponse.write(\'</title>\\n    <!-- http://dev.w3.org/html5/markup/meta.name.html -->\\n    <meta name="application-name" content="\', escape=False)\nresponse.write(request.application)\nresponse.write(\'">\\n    <!-- Speaking of Google, don\\\'t forget to set your site up:\\n         http://google.com/webmasters -->\\n    <meta name="google-site-verification" content="">\\n    <!-- include stylesheets -->\\n    <link rel="stylesheet" href="\', escape=False)\nresponse.write(URL(\'static\',\'css/bootstrap.min.css\'))\nresponse.write(\'"/>\\n    <link rel="stylesheet" href="\', escape=False)\nresponse.write(URL(\'static\',\'css/bootstrap-theme.min.css\'))\nresponse.write(\'"/>\\n    <link rel="stylesheet" href="\', escape=False)\nresponse.write(URL(\'static\',\'css/web2py-bootstrap3.css\'))\nresponse.write(\'"/>\\n    <link rel="stylesheet" href="\', escape=False)\nresponse.write(URL(\'static\', \'css/jquery-ui.min.css\'))\nresponse.write(\'"/>\\n    <link rel="stylesheet" href="\', escape=False)\nresponse.write(URL(\'static\', \'css/jquery-ui.structure.min.css\'))\nresponse.write(\'" />\\n    <link rel="stylesheet" href="\', escape=False)\nresponse.write(URL(\'static\', \'css/jquery-ui.theme.min.css\'))\nresponse.write(\'" />\\n    <link rel="stylesheet" href="\', escape=False)\nresponse.write(URL(\'static\', \'css/myapp.css\'))\nresponse.write(\'" />\\n      <link rel="styelsheet" href="\', escape=False)\nresponse.write(URL(\'static\', \'css/animate.css\'))\nresponse.write(\'"/>\\n    <link rel="shortcut icon" href="\', escape=False)\nresponse.write(URL(\'static\',\'images/favicon.ico\'))\nresponse.write(\'" type="image/x-icon">\\n    <link rel="apple-touch-icon" href="\', escape=False)\nresponse.write(URL(\'static\',\'images/favicon.png\'))\nresponse.write(\'">\\n    <!-- All JavaScript at the bottom, except for Modernizr which enables\\n         HTML5 elements & feature detects -->\\n    <script src="\', escape=False)\nresponse.write(URL(\'static\',\'js/modernizr-2.8.3.min.js\'))\nresponse.write(\'"></script>\\n    <script src="\', escape=False)\nresponse.write(URL(\'static\', \'js/ractive.min.js\'))\nresponse.write(\'"></script>\\n    <!--[if lt IE 9]>\\n        <script src="\', escape=False)\nresponse.write(URL(\'static\',\'js/respond-1.4.2.min.js\'))\nresponse.write(\'"></script>\\n        <![endif]-->\\n    <!-- Favicons -->\\n    \', escape=False)\nresponse.write(\'<script type="text/javascript"><!--\\n    // These variables are used by the web2py_ajax_init function in web2py_ajax.js (which is loaded below).\\n    var w2p_ajax_confirm_message = "\', escape=False)\nresponse.write(T(\'Are you sure you want to delete this object?\'))\nresponse.write(\'";\\n    var w2p_ajax_disable_with_message = "\', escape=False)\nresponse.write(T(\'Working...\'))\nresponse.write(\'";\\n    var w2p_ajax_date_format = "\', escape=False)\nresponse.write(T(\'%Y-%m-%d\'))\nresponse.write(\'";\\n    var w2p_ajax_datetime_format = "\', escape=False)\nresponse.write(T(\'%Y-%m-%d %H:%M:%S\'))\nresponse.write(\'";\\n    var ajax_error_500 = \\\'\', escape=False)\nresponse.write(T.M(\'An error occured, please [[reload %s]] the page\') % URL(args=request.args, vars=request.get_vars))\nresponse.write("\'\\n    //--></script>\\n", escape=False)\nresponse.files.insert(0,URL(\'static\',\'js/jquery.js\'))\nresponse.files.insert(1,URL(\'static\',\'css/calendar.css\'))\nresponse.files.insert(2,URL(\'static\',\'js/calendar.js\'))\nresponse.files.insert(3,URL(\'static\',\'js/web2py.js\'))\nresponse.include_meta()\nresponse.include_files()\nresponse.write(\'\\n\', escape=False)\nresponse.write(\' <!-- this includes jquery.js, calendar.js/.css and web2py.js -->\\n    \', escape=False)\nresponse.write(\'\\n    \', escape=False)\n# using sidebars need to know what sidebar you want to use\nmc0 = \'col-md-12\'\nmc1 = \'col-md-9\'\nmc2 = \'col-md-6\'\nleft_sidebar_enabled = globals().get(\'left_sidebar_enabled\', False)\nright_sidebar_enabled = globals().get(\'right_sidebar_enabled\', False)\nmiddle_column = {0: mc0, 1: mc1, 2: mc2}[\n(left_sidebar_enabled and 1 or 0)+(right_sidebar_enabled and 1 or 0)]\nresponse.write(\'\\n  </head>\\n  <body id="imageonly">\\n    <!--[if lt IE 8]><p class="browserupgrade">You are using an <strong>outdated</strong> browser. Please <a href="http://browsehappy.com/">upgrade your browser</a> to improve your experience.</p><![endif]-->\\n    <div class="flash alert alert-dismissable">\', escape=False)\nresponse.write(response.flash or \'\')\nresponse.write(\'</div>\\n    <!-- Navbar ======================================= -->\\n<div class="navbar navbar-inverse navbar-twitch" role="navigation">\\n\\t<div class="container">\\n\\t\\t<div class="">\\n\\t\\t\\t<ul class="nav navbar-nav">\\n                \', escape=False)\nif not auth.user_id:\n    response.write(\'\\n\\t\\t\\t\\t<li data-id="home" class="site_nav_item">\\n\\t\\t\\t\\t\\t<a href="\', escape=False)\n    response.write(URL(\'default\', \'index\'))\n    response.write(\'" class = "navbar_item">\\n\\t\\t\\t\\t\\t\\t<span class="small-nav" data-toggle="tooltip" data-placement="right" title="Home">\\n\\t\\t\\t\\t\\t\\t\\t<span class="glyphicon glyphicon-home"></span>\\n\\t\\t\\t\\t\\t\\t</span>\\n\\t\\t\\t\\t\\t\\t<span class="full-nav"> Home </span>\\n\\t\\t\\t\\t\\t</a>\\n\\t\\t\\t\\t</li>\\n                \', escape=False)\n    pass\nresponse.write(\'\\n\\t\\t\\t\\t<li data-id="instructions" class="site_nav_item">\\n\\t\\t\\t\\t\\t<a href="\', escape=False)\nresponse.write(URL(\'default\', \'instructions\'))\nresponse.write(\'" class = "navbar_item">\\n\\t\\t\\t\\t\\t\\t<span class="small-nav" data-toggle="tooltip" data-placement="right" title="Instructions">\\n\\t\\t\\t\\t\\t\\t\\t<span class="glyphicon glyphicon-list-alt"></span>\\n\\t\\t\\t\\t\\t\\t</span>\\n\\t\\t\\t\\t\\t\\t<span class="full-nav"> Instructions </span>\\n\\t\\t\\t\\t\\t</a>\\n\\t\\t\\t\\t</li>\\n\\t\\t\\t\\t<li data-id="words" class="site_nav_item">\\n\\t\\t\\t\\t\\t<a href="\', escape=False)\nresponse.write(URL(\'default\', \'wordlist\'))\nresponse.write(\'" class = "navbar_item">\\n\\t\\t\\t\\t\\t\\t<span class="small-nav" data-toggle="tooltip" data-placement="right" title="Word List">\\n\\t\\t\\t\\t\\t\\t\\t<span class="glyphicon glyphicon-font"></span>\\n\\t\\t\\t\\t\\t\\t</span>\\n\\t\\t\\t\\t\\t\\t<span class="full-nav"> Word List </span>\\n\\t\\t\\t\\t\\t</a>\\n\\t\\t\\t\\t</li>\\n                <li data-id="game" class="site_nav_item">\\n\\t\\t\\t\\t\\t<a href="\', escape=False)\nresponse.write(URL(\'default\', \'board\'))\nresponse.write(\'" class = "navbar_item">\\n\\t\\t\\t\\t\\t\\t<span class="small-nav" data-toggle="tooltip" data-placement="right" title="Game Board">\\n\\t\\t\\t\\t\\t\\t\\t<span class="glyphicon glyphicon-knight"></span>\\n\\t\\t\\t\\t\\t\\t</span>\\n\\t\\t\\t\\t\\t\\t<span class="full-nav"> Game Board </span>\\n\\t\\t\\t\\t\\t</a>\\n\\t\\t\\t\\t</li>\\n\\t\\t\\t</ul>\\n\\t\\t</div><!--/.nav-collapse -->\\n\\t</div>\\n</div>\\n    <!-- Masthead ===================================== -->\\n    \', escape=False)\nresponse.write(\'\\n    \', escape=False)\nresponse.write(\'\\n    <!-- Main ========================================= -->\\n    <!-- Begin page content -->\\n    <div class="container-fluid main-container">\\n      \', escape=False)\nif left_sidebar_enabled:\n    response.write(\'\\n        <div class="col-md-3 left-sidebar">\\n            \', escape=False)\n    response.write(\'\\n            <h3>Left Sidebar</h3>\\n            <p></p>\\n            \', escape=False)\n    response.write(\'\\n        </div>\\n      \', escape=False)\n    pass\nresponse.write(\'\\n\\n      <div class="\', escape=False)\nresponse.write(middle_column)\nresponse.write(\'">\\n        \', escape=False)\nresponse.write(\'\\n        \', escape=False)\nresponse.write(\'\\n<div id="target"></div>\\n<script id="template" type="text/ractive">\\n\', escape=False)\nif auth.uder_id:\n    response.write(\'\\n    <h1>Find a Path to {%targetWord%}</h1>\\n    <div class="container">\\n        <div id="play_game" class="col-md-12">\\n            <span class="h2">Enter a key word</span>\\n            <input type="text" id="keyWord" value="{% keyWord %}" />\\n            <input type="submit" value="Submit" id="keyWord_submit" class="btn btn-default" on-click="make_game" />\\n            <div class="error" id="keyWordError" name="keyWordError"></div>\\n        </div>\\n        <div id="message" class="col-md-12"></div>\\n        <div id="score" class="col-md-12"></div>\\n        <div id="results" class="col-sm-8"></div>\\n        <div class="col-sm-4">\\n            <img class="bacometer"/>\\n        </div>\\n    </div>\\n\', escape=False)\nelse:\n    response.write(\'\\n    <h1>Please Sign in to play a Game!</h1>\\n        <div class="centered">\', escape=False)\n    response.write(home_icon)\n    response.write(\'</div>\\n\', escape=False)\n    pass\nresponse.write(\'\\n</script>\\n<script type="text/javascript" src="\', escape=False)\nresponse.write(URL(\'static\', \'js\', args=[\'bacon.js\']))\nresponse.write(\'"></script>\\n<script src="\', escape=False)\nresponse.write(URL(\'static\', \'js/form-validate.js\'))\nresponse.write(\'"></script>\\n<script type="text/javascript">\\n    //Ractive Object\\n    var ractive = new Ractive({\\n        delimiters: [\\\'{%\\\', \\\'%}\\\'],\\n        tripleDelimiters: [\\\'{%%\\\', \\\'%%}\\\'],\\n        el: \\\'#target\\\',\\n        template: \\\'#template\\\',\\n        data: {\\n            targetWord: \\\'\', escape=False)\nresponse.write(targetWord)\nresponse.write(\'\\\',\\n            keyWord: \\\'\\\',\\n            wordList: []\\n        }\\n    });\\n\\n    //Loads list of available game names (copy of wordList)\\n    $.ajax(\\n            "\', escape=False)\nresponse.write(URL(\'default\', \'load_wordlist\'))\nresponse.write(\'",\\n            {\\n                method: \\\'POST\\\',\\n                success: function(data){\\n                    ractive.set(\\\'wordList\\\', data[\\\'wordList\\\']);\\n                    $("#keyWord").autocomplete({\\n                             source: data[\\\'wordList\\\']\\n                         });\\n                },\\n                error: function(){}\\n            }\\n    );\\n    //Called when submit button is clicked\\n    ractive.on("make_game", function(){\\n        var keyWord = ractive.get(\\\'keyWord\\\');\\n        var targetWord = ractive.get(\\\'targetWord\\\');\\n        new Bacon(keyWord, targetWord, ractive.get(\\\'wordList\\\'));\\n    });\\n\\n\\n    (function(){\\n\\n    $(\\\'.site_nav_item\\\').each(function(){\\n        var $this =$(this);\\n        if($this.data(\\\'id\\\')=== "game"){$this.addClass(\\\'active\\\');}\\n\\n    });\\n\\n    })();\\n\\n\\n</script>\\n\', escape=False)\nresponse.write(\'\\n        \', escape=False)\nresponse.write(\'\\n      </div>\\n\\n      \', escape=False)\nif right_sidebar_enabled:\n    response.write(\'\\n        <div class="col-md-3">\\n            \', escape=False)\n    response.write(\'\\n            <h3>Right Sidebar</h3>\\n            <p></p>\\n            \', escape=False)\n    response.write(\'\\n        </div>\\n      \', escape=False)\n    pass\nresponse.write(\'\\n\\n    </div>\\n    <!-- The javascript =============================== -->\\n    <script src="\', escape=False)\nresponse.write(URL(\'static\',\'js/bootstrap.min.js\'))\nresponse.write(\'"></script>\\n    <script src="\', escape=False)\nresponse.write(URL(\'static\',\'js/web2py-bootstrap3.js\'))\nresponse.write(\'"></script>\\n    <script src="\', escape=False)\nresponse.write(URL(\'static\', \'js/jquery-ui.min.js\'))\nresponse.write(\'"></script>\\n    \', escape=False)\nresponse.write(\'\\n    \', escape=False)\nif response.google_analytics_id:\n    response.write(\'\\n    <!-- Analytics ==================================== -->\\n    <script src="\', escape=False)\n    response.write(URL(\'static\',\'js/analytics.min.js\'))\n    response.write(\'"></script>\\n    <script type="text/javascript">\\n      analytics.initialize({\\n      \\\'Google Analytics\\\':{trackingId:\\\'\', escape=False)\n    response.write(response.google_analytics_id)\n    response.write("\'}\\n      });\\n    </script>\\n    ", escape=False)\n    pass\nresponse.write(\'\\n    <!-- Share ============================y============ -->\\n    <script src="\', escape=False)\nresponse.write(URL(\'static\',\'js/share.js\',vars=dict(static=URL(\'static\',\'images\'))))\nresponse.write(\'"></script>\\n  </body>\\n<script>\\n\\n\\n</script>\\n</html>\\n\', escape=False)'
p7
sS'snapshot'
p8
(dp9
sS'traceback'
p10
S'Traceback (most recent call last):\n  File "/Users/Mvelasquez/Desktop/project-bacon/gluon/restricted.py", line 227, in restricted\n    exec ccode in environment\n  File "/Users/Mvelasquez/Desktop/project-bacon/applications/project_bacon/views/default/game.html", line 92, in <module>\nAttributeError: \'Auth\' object has no attribute \'uder_id\'\n'
p11
s.