(dp1
S'output'
p2
S"<type 'exceptions.TypeError'> list indices must be integers, not str"
p3
sS'layer'
p4
S'/Users/Mvelasquez/Desktop/project-bacon/applications/project_bacon/controllers/default.py'
p5
sS'code'
p6
S'# -*- coding: utf-8 -*-\n# this file is released under public domain and you can use without limitations\n\n#########################################################################\n## This is a sample controller\n## - index is the default action of any application\n## - user is required for authentication and authorization\n## - download is for downloading files uploaded in the db (does streaming)\n#########################################################################\nWORDLIST=[\n    \'aback\',\n    \'abase\',\n    \'abash\',\n    \'abate\',\n    \'abbas\',\n    \'abbey\',\n    \'abbot\',\n    \'abide\',\n    \'abode\',\n    \'abort\',\n    \'about\',\n    \'above\',\n    \'abuse\',\n    \'abyss\',\n    \'acorn\',\n    \'acrid\',\n    \'actor\',\n    \'acute\',\n    \'adage\',\n    \'adapt\',\n    \'added\',\n    \'addle\',\n    \'adept\',\n    \'adieu\',\n    \'admit\',\n    \'admix\',\n    \'adobe\',\n    \'adopt\',\n    \'adore\',\n    \'adorn\',\n    \'adult\',\n    \'aegis\',\n    \'affix\',\n    \'afire\',\n    \'afoot\',\n    \'afoul\',\n    \'again\',\n    \'agate\',\n    \'agave\',\n    \'agent\',\n    \'agile\',\n    \'aging\',\n    \'agone\',\n    \'agony\',\n    \'agree\',\n    \'ahead\',\n    \'aisle\',\n    \'alarm\',\n    \'album\',\n    \'alder\',\n    \'aleph\',\n    \'alert\',\n    \'algae\',\n    \'algal\',\n    \'alias\',\n    \'alibi\',\n    \'alien\',\n    \'align\',\n    \'alike\',\n    \'alive\',\n    \'allay\',\n    \'alley\',\n    \'allot\',\n    \'allow\',\n    \'alloy\',\n    \'allyl\',\n    \'aloft\',\n    \'aloha\',\n    \'alone\',\n    \'along\',\n    \'aloof\',\n    \'aloud\',\n    \'alpha\',\n    \'altar\',\n    \'alter\',\n    \'alway\',\n    \'amass\',\n    \'amaze\',\n    \'amber\',\n    \'amble\',\n    \'amend\',\n    \'amide\',\n    \'amigo\',\n    \'amino\',\n    \'amiss\',\n    \'amity\',\n    \'among\',\n    \'amort\',\n    \'ample\',\n    \'amply\',\n    \'amuse\',\n    \'anent\',\n    \'angel\',\n    \'anger\',\n    \'angle\',\n    \'angry\',\n    \'angst\',\n    \'anion\',\n    \'anise\',\n    \'ankle\',\n    \'annal\',\n    \'annex\',\n    \'annoy\',\n    \'annul\',\n    \'annum\',\n    \'anode\',\n    \'antic\',\n    \'anvil\',\n    \'aorta\',\n    \'apace\',\n    \'apart\',\n    \'aphid\',\n    \'apple\',\n    \'apply\',\n    \'apron\',\n    \'arena\',\n    \'argon\',\n    \'argot\',\n    \'argue\',\n    \'arhat\',\n    \'arise\',\n    \'aroma\',\n    \'arose\',\n    \'array\',\n    \'arrow\',\n    \'arson\',\n    \'ashen\',\n    \'aside\',\n    \'askew\',\n    \'aspen\',\n    \'assai\',\n    \'assay\',\n    \'asset\',\n    \'aster\',\n    \'atlas\',\n    \'atone\',\n    \'attic\',\n    \'audio\',\n    \'audit\',\n    \'auger\',\n    \'augur\',\n    \'aural\',\n    \'auric\',\n    \'avail\',\n    \'avert\',\n    \'avoid\',\n    \'await\',\n    \'awake\',\n    \'award\',\n    \'aware\',\n    \'awash\',\n    \'awful\',\n    \'awoke\',\n    \'axial\',\n    \'axiom\',\n    \'azure\',\n    \'bacon\',\n    \'badge\',\n    \'bagel\',\n    \'baggy\',\n    \'baldy\',\n    \'balky\',\n    \'balmy\',\n    \'balsa\',\n    \'banal\',\n    \'bandy\',\n    \'banjo\',\n    \'barge\',\n    \'baron\',\n    \'barre\',\n    \'basal\',\n    \'basic\',\n    \'basil\',\n    \'basin\',\n    \'basis\',\n    \'bassi\',\n    \'basso\',\n    \'baste\',\n    \'batch\',\n    \'bater\',\n    \'bathe\',\n    \'batik\',\n    \'baton\',\n    \'bawdy\',\n    \'bayed\',\n    \'bayou\',\n    \'beach\',\n    \'beady\',\n    \'beard\',\n    \'beast\',\n    \'beaux\',\n    \'bebop\',\n    \'bedim\',\n    \'beech\',\n    \'beefy\',\n    \'befit\',\n    \'began\',\n    \'beget\',\n    \'begin\',\n    \'begun\',\n    \'beige\',\n    \'being\',\n    \'belch\',\n    \'belie\',\n    \'belle\',\n    \'belly\',\n    \'below\',\n    \'beman\',\n    \'bench\',\n    \'beret\',\n    \'berne\',\n    \'berry\',\n    \'berth\',\n    \'beryl\',\n    \'beset\',\n    \'betel\',\n    \'bevel\',\n    \'bezel\',\n    \'bicep\',\n    \'biddy\',\n    \'bigot\',\n    \'bilge\',\n    \'billy\',\n    \'binge\',\n    \'biota\',\n    \'birch\',\n    \'birth\',\n    \'bison\',\n    \'bitch\',\n    \'black\',\n    \'blade\',\n    \'blame\',\n    \'blanc\',\n    \'bland\',\n    \'blank\',\n    \'blare\',\n    \'blast\',\n    \'blaze\',\n    \'bleak\',\n    \'bleat\',\n    \'bleed\',\n    \'blend\',\n    \'bless\',\n    \'blest\',\n    \'blimp\',\n    \'blind\',\n    \'blink\',\n    \'bliss\',\n    \'blitz\',\n    \'bloat\',\n    \'block\',\n    \'bloke\',\n    \'blond\',\n    \'blood\',\n    \'bloom\',\n    \'bloop\',\n    \'blown\',\n    \'bluet\',\n    \'bluff\',\n    \'blunt\',\n    \'blurb\',\n    \'blurt\',\n    \'blush\',\n    \'board\',\n    \'boast\',\n    \'bobby\',\n    \'bogey\',\n    \'boggy\',\n    \'bogus\',\n    \'bongo\',\n    \'bonus\',\n    \'bonze\',\n    \'booby\',\n    \'booky\',\n    \'boost\',\n    \'booth\',\n    \'booty\',\n    \'booze\',\n    \'borax\',\n    \'boric\',\n    \'borne\',\n    \'boron\',\n    \'bosom\',\n    \'boson\',\n    \'botch\',\n    \'bough\',\n    \'boule\',\n    \'bound\',\n    \'bourn\',\n    \'bowel\',\n    \'bowie\',\n    \'boyar\',\n    \'brace\',\n    \'bract\',\n    \'braid\',\n    \'brain\',\n    \'brake\',\n    \'brand\',\n    \'brant\',\n    \'brash\',\n    \'brass\',\n    \'brave\',\n    \'bravo\',\n    \'brawl\',\n    \'bread\',\n    \'break\',\n    \'bream\',\n    \'breed\',\n    \'breve\',\n    \'briar\',\n    \'bribe\',\n    \'brick\',\n    \'bride\',\n    \'brief\',\n    \'brine\',\n    \'bring\',\n    \'brink\',\n    \'briny\',\n    \'brisk\',\n    \'broad\',\n    \'broil\',\n    \'broke\',\n    \'brood\',\n    \'brook\',\n    \'broom\',\n    \'broth\',\n    \'brown\',\n    \'bruit\',\n    \'brunt\',\n    \'brush\',\n    \'brute\',\n    \'buddy\',\n    \'budge\',\n    \'buggy\',\n    \'bugle\',\n    \'build\',\n    \'built\',\n    \'bulge\',\n    \'bulky\',\n    \'bully\',\n    \'bunch\',\n    \'bundy\',\n    \'bunny\',\n    \'buret\',\n    \'burly\',\n    \'burnt\',\n    \'burro\',\n    \'burst\',\n    \'buses\',\n    \'bushy\',\n    \'butch\',\n    \'buteo\',\n    \'butte\',\n    \'butyl\',\n    \'buxom\',\n    \'buyer\',\n    \'buzzy\',\n    \'bylaw\',\n    \'byway\',\n    \'cabal\',\n    \'cabin\',\n    \'cable\',\n    \'cacao\',\n    \'cache\',\n    \'cacti\',\n    \'caddy\',\n    \'cadet\',\n    \'cadre\',\n    \'cagey\',\n    \'cairn\',\n    \'calla\',\n    \'calve\',\n    \'camel\',\n    \'cameo\',\n    \'canal\',\n    \'candy\',\n    \'canna\',\n    \'canny\',\n    \'canoe\',\n    \'canon\',\n    \'canst\',\n    \'canto\',\n    \'caper\',\n    \'caret\',\n    \'cargo\',\n    \'carne\',\n    \'carob\',\n    \'carol\',\n    \'carry\',\n    \'carte\',\n    \'carve\',\n    \'caste\',\n    \'catch\',\n    \'cater\',\n    \'caulk\',\n    \'cause\',\n    \'cavil\',\n    \'cease\',\n    \'cedar\',\n    \'chafe\',\n    \'chaff\',\n    \'chain\',\n    \'chair\',\n    \'chalk\',\n    \'champ\',\n    \'chant\',\n    \'chaos\',\n    \'chard\',\n    \'charm\',\n    \'chart\',\n    \'chase\',\n    \'chasm\',\n    \'cheap\',\n    \'cheat\',\n    \'check\',\n    \'cheek\',\n    \'cheer\',\n    \'chert\',\n    \'chess\',\n    \'chest\',\n    \'chevy\',\n    \'chick\',\n    \'chide\',\n    \'chief\',\n    \'child\',\n    \'chili\',\n    \'chill\',\n    \'chime\',\n    \'china\',\n    \'chine\',\n    \'chink\',\n    \'chirp\',\n    \'chive\',\n    \'chock\',\n    \'choir\',\n    \'choke\',\n    \'chomp\',\n    \'chord\',\n    \'chore\',\n    \'chose\',\n    \'chuck\',\n    \'chuff\',\n    \'chump\',\n    \'chunk\',\n    \'churn\',\n    \'chute\',\n    \'cider\',\n    \'cigar\',\n    \'cilia\',\n    \'cinch\',\n    \'circa\',\n    \'civet\',\n    \'civic\',\n    \'civil\',\n    \'claim\',\n    \'clamp\',\n    \'clang\',\n    \'clank\',\n    \'clash\',\n    \'clasp\',\n    \'class\',\n    \'clean\',\n    \'clear\',\n    \'cleat\',\n    \'cleft\',\n    \'clerk\',\n    \'click\',\n    \'cliff\',\n    \'climb\',\n    \'clime\',\n    \'cling\',\n    \'clink\',\n    \'cloak\',\n    \'clock\',\n    \'clomp\',\n    \'clone\',\n    \'close\',\n    \'cloth\',\n    \'cloud\',\n    \'clout\',\n    \'clove\',\n    \'clown\',\n    \'cluck\',\n    \'clump\',\n    \'clung\',\n    \'coach\',\n    \'coast\',\n    \'cobra\',\n    \'cocky\',\n    \'cocoa\',\n    \'codon\',\n    \'colon\',\n    \'colza\',\n    \'comet\',\n    \'comic\',\n    \'comma\',\n    \'conch\',\n    \'coney\',\n    \'conic\',\n    \'cooky\',\n    \'copra\',\n    \'coral\',\n    \'corny\',\n    \'corps\',\n    \'cosec\',\n    \'coset\',\n    \'cotta\',\n    \'cotty\',\n    \'couch\',\n    \'cough\',\n    \'could\',\n    \'count\',\n    \'coupe\',\n    \'court\',\n    \'coven\',\n    \'cover\',\n    \'covet\',\n    \'cowry\',\n    \'coypu\',\n    \'cozen\',\n    \'crack\',\n    \'craft\',\n    \'cramp\',\n    \'crane\',\n    \'crank\',\n    \'crash\',\n    \'crass\',\n    \'crate\',\n    \'crave\',\n    \'crawl\',\n    \'craze\',\n    \'crazy\',\n    \'creak\',\n    \'cream\',\n    \'credo\',\n    \'creed\',\n    \'creek\',\n    \'creep\',\n    \'crepe\',\n    \'crept\',\n    \'cress\',\n    \'crest\',\n    \'cried\',\n    \'crime\',\n    \'crimp\',\n    \'crisp\',\n    \'criss\',\n    \'croak\',\n    \'crock\',\n    \'croft\',\n    \'crone\',\n    \'crony\',\n    \'crook\',\n    \'croon\',\n    \'cross\',\n    \'crowd\',\n    \'crown\',\n    \'crude\',\n    \'cruel\',\n    \'crumb\',\n    \'crump\',\n    \'crush\',\n    \'crust\',\n    \'crypt\',\n    \'csnet\',\n    \'cubic\',\n    \'culpa\',\n    \'cumin\',\n    \'curia\',\n    \'curie\',\n    \'curio\',\n    \'curry\',\n    \'curse\',\n    \'curve\',\n    \'cycad\',\n    \'cycle\',\n    \'cynic\',\n    \'daddy\',\n    \'daffy\',\n    \'dairy\',\n    \'daisy\',\n    \'dally\',\n    \'dance\',\n    \'dandy\',\n    \'dater\',\n    \'datum\',\n    \'daunt\',\n    \'davit\',\n    \'dealt\',\n    \'death\',\n    \'debar\',\n    \'debit\',\n    \'debug\',\n    \'debut\',\n    \'decal\',\n    \'decay\',\n    \'decor\',\n    \'decoy\',\n    \'decry\',\n    \'defer\',\n    \'degas\',\n    \'degum\',\n    \'deify\',\n    \'deign\',\n    \'deity\',\n    \'delay\',\n    \'delta\',\n    \'delve\',\n    \'demit\',\n    \'demon\',\n    \'demur\',\n    \'dense\',\n    \'depot\',\n    \'depth\',\n    \'derby\',\n    \'deter\',\n    \'deuce\',\n    \'devil\',\n    \'dewar\',\n    \'diary\',\n    \'dicta\',\n    \'diety\',\n    \'digit\',\n    \'dingo\',\n    \'dingy\',\n    \'diode\',\n    \'dirge\',\n    \'dirty\',\n    \'disco\',\n    \'ditch\',\n    \'ditto\',\n    \'ditty\',\n    \'divan\',\n    \'dizzy\',\n    \'dodge\',\n    \'dogma\',\n    \'dolce\',\n    \'dolly\',\n    \'donor\',\n    \'doubt\',\n    \'douce\',\n    \'dough\',\n    \'douse\',\n    \'dowel\',\n    \'dowry\',\n    \'dozen\',\n    \'draft\',\n    \'drain\',\n    \'drake\',\n    \'drama\',\n    \'drank\',\n    \'drape\',\n    \'drawl\',\n    \'drawn\',\n    \'dread\',\n    \'dream\',\n    \'dress\',\n    \'dried\',\n    \'drier\',\n    \'drift\',\n    \'drill\',\n    \'drink\',\n    \'drive\',\n    \'droll\',\n    \'drone\',\n    \'drool\',\n    \'droop\',\n    \'dross\',\n    \'drove\',\n    \'drown\',\n    \'druid\',\n    \'drunk\',\n    \'dryad\',\n    \'ducat\',\n    \'dully\',\n    \'dulse\',\n    \'dummy\',\n    \'dumpy\',\n    \'dunce\',\n    \'dusky\',\n    \'dusty\',\n    \'dwarf\',\n    \'dwell\',\n    \'dwelt\',\n    \'dying\',\n    \'eager\',\n    \'eagle\',\n    \'earth\',\n    \'easel\',\n    \'eaten\',\n    \'eater\',\n    \'ebony\',\n    \'eclat\',\n    \'edict\',\n    \'edify\',\n    \'eerie\',\n    \'egret\',\n    \'eider\',\n    \'eight\',\n    \'eject\',\n    \'elate\',\n    \'elbow\',\n    \'elder\',\n    \'elect\',\n    \'elegy\',\n    \'elfin\',\n    \'elide\',\n    \'elite\',\n    \'elope\',\n    \'elude\',\n    \'elute\',\n    \'elves\',\n    \'embed\',\n    \'ember\',\n    \'emcee\',\n    \'empty\',\n    \'endow\',\n    \'enemy\',\n    \'enter\',\n    \'entry\',\n    \'envoy\',\n    \'epoch\',\n    \'epoxy\',\n    \'equal\',\n    \'equip\',\n    \'erase\',\n    \'erect\',\n    \'erode\',\n    \'error\',\n    \'erupt\',\n    \'essay\',\n    \'ester\',\n    \'estop\',\n    \'ether\',\n    \'ethic\',\n    \'ethos\',\n    \'ethyl\',\n    \'etude\',\n    \'eucre\',\n    \'evade\',\n    \'event\',\n    \'every\',\n    \'evict\',\n    \'evoke\',\n    \'exact\',\n    \'exalt\',\n    \'excel\',\n    \'exert\',\n    \'exile\',\n    \'exist\',\n    \'expel\',\n    \'extol\',\n    \'extra\',\n    \'exude\',\n    \'exult\',\n    \'fable\',\n    \'facet\',\n    \'facto\',\n    \'faery\',\n    \'faint\',\n    \'fairy\',\n    \'faith\',\n    \'false\',\n    \'fancy\',\n    \'farad\',\n    \'farce\',\n    \'fatal\',\n    \'fatty\',\n    \'fault\',\n    \'fauna\',\n    \'feast\',\n    \'feign\',\n    \'feint\',\n    \'felon\',\n    \'femur\',\n    \'fence\',\n    \'ferry\',\n    \'fetal\',\n    \'fetch\',\n    \'fetid\',\n    \'fetus\',\n    \'fever\',\n    \'fiche\',\n    \'field\',\n    \'fiend\',\n    \'fiery\',\n    \'fifth\',\n    \'fifty\',\n    \'fight\',\n    \'filch\',\n    \'filet\',\n    \'filly\',\n    \'filmy\',\n    \'filth\',\n    \'final\',\n    \'finch\',\n    \'finny\',\n    \'first\',\n    \'fishy\',\n    \'fjord\',\n    \'flack\',\n    \'flail\',\n    \'flair\',\n    \'flake\',\n    \'flaky\',\n    \'flame\',\n    \'flank\',\n    \'flare\',\n    \'flash\',\n    \'flask\',\n    \'fleck\',\n    \'fleet\',\n    \'flesh\',\n    \'flick\',\n    \'flier\',\n    \'fling\',\n    \'flint\',\n    \'flirt\',\n    \'float\',\n    \'flock\',\n    \'flood\',\n    \'floor\',\n    \'flora\',\n    \'flour\',\n    \'flout\',\n    \'flown\',\n    \'fluff\',\n    \'fluid\',\n    \'fluke\',\n    \'flung\',\n    \'flunk\',\n    \'flush\',\n    \'flute\',\n    \'flyer\',\n    \'foamy\',\n    \'focal\',\n    \'focus\',\n    \'foggy\',\n    \'foist\',\n    \'folio\',\n    \'folly\',\n    \'foray\',\n    \'force\',\n    \'forge\',\n    \'forgo\',\n    \'forte\',\n    \'forth\',\n    \'forty\',\n    \'forum\',\n    \'found\',\n    \'fount\',\n    \'fovea\',\n    \'foyer\',\n    \'frail\',\n    \'frame\',\n    \'franc\',\n    \'frank\',\n    \'fraud\',\n    \'freak\',\n    \'freed\',\n    \'freer\',\n    \'freon\',\n    \'fresh\',\n    \'friar\',\n    \'fried\',\n    \'frill\',\n    \'frock\',\n    \'front\',\n    \'frost\',\n    \'froth\',\n    \'frown\',\n    \'froze\',\n    \'fruit\',\n    \'fudge\',\n    \'fugal\',\n    \'fugue\',\n    \'fully\',\n    \'fungi\',\n    \'funny\',\n    \'furry\',\n    \'furze\',\n    \'fussy\',\n    \'fusty\',\n    \'fuzzy\',\n    \'gable\',\n    \'gaffe\',\n    \'gamin\',\n    \'gamma\',\n    \'gamut\',\n    \'gases\',\n    \'gassy\',\n    \'gator\',\n    \'gaudy\',\n    \'gauge\',\n    \'gaunt\',\n    \'gauss\',\n    \'gauze\',\n    \'gavel\',\n    \'gawky\',\n    \'gecko\',\n    \'geese\',\n    \'genie\',\n    \'genii\',\n    \'genre\',\n    \'genus\',\n    \'ghost\',\n    \'ghoul\',\n    \'giant\',\n    \'gibby\',\n    \'giddy\',\n    \'gimpy\',\n    \'girth\',\n    \'given\',\n    \'glade\',\n    \'gland\',\n    \'glans\',\n    \'glare\',\n    \'glass\',\n    \'glaze\',\n    \'gleam\',\n    \'glean\',\n    \'glide\',\n    \'glint\',\n    \'gloat\',\n    \'globe\',\n    \'gloom\',\n    \'glory\',\n    \'gloss\',\n    \'glove\',\n    \'glued\',\n    \'gluey\',\n    \'glyph\',\n    \'gnarl\',\n    \'gnash\',\n    \'gnome\',\n    \'golly\',\n    \'goody\',\n    \'goofy\',\n    \'goose\',\n    \'gorge\',\n    \'gorse\',\n    \'gouge\',\n    \'gourd\',\n    \'grace\',\n    \'grade\',\n    \'graft\',\n    \'grail\',\n    \'grain\',\n    \'grand\',\n    \'grant\',\n    \'grape\',\n    \'graph\',\n    \'grasp\',\n    \'grass\',\n    \'grata\',\n    \'grate\',\n    \'grave\',\n    \'gravy\',\n    \'graze\',\n    \'great\',\n    \'grebe\',\n    \'greed\',\n    \'green\',\n    \'greet\',\n    \'grief\',\n    \'grill\',\n    \'grime\',\n    \'grind\',\n    \'gripe\',\n    \'grist\',\n    \'groan\',\n    \'groat\',\n    \'groin\',\n    \'groom\',\n    \'grope\',\n    \'gross\',\n    \'group\',\n    \'grout\',\n    \'grove\',\n    \'growl\',\n    \'grown\',\n    \'gruff\',\n    \'grunt\',\n    \'guano\',\n    \'guard\',\n    \'guess\',\n    \'guest\',\n    \'guide\',\n    \'guild\',\n    \'guile\',\n    \'guilt\',\n    \'guise\',\n    \'gules\',\n    \'gully\',\n    \'gumbo\',\n    \'gummy\',\n    \'gunky\',\n    \'gunny\',\n    \'gusto\',\n    \'gusty\',\n    \'gutsy\',\n    \'gypsy\',\n    \'habit\',\n    \'haiku\',\n    \'hairy\',\n    \'halma\',\n    \'halve\',\n    \'handy\',\n    \'happy\',\n    \'hardy\',\n    \'harem\',\n    \'harry\',\n    \'harsh\',\n    \'haste\',\n    \'hasty\',\n    \'hatch\',\n    \'hater\',\n    \'haunt\',\n    \'haven\',\n    \'havoc\',\n    \'hazel\',\n    \'heady\',\n    \'heard\',\n    \'heart\',\n    \'heath\',\n    \'heave\',\n    \'heavy\',\n    \'hedge\',\n    \'hefty\',\n    \'heigh\',\n    \'helix\',\n    \'hello\',\n    \'hence\',\n    \'henry\',\n    \'heron\',\n    \'hertz\',\n    \'hilly\',\n    \'hilum\',\n    \'hinge\',\n    \'hippo\',\n    \'hippy\',\n    \'hitch\',\n    \'hoagy\',\n    \'hoard\',\n    \'hobby\',\n    \'hocus\',\n    \'hodge\',\n    \'hogan\',\n    \'holly\',\n    \'hondo\',\n    \'honey\',\n    \'hooch\',\n    \'horde\',\n    \'horny\',\n    \'horse\',\n    \'hotel\',\n    \'hough\',\n    \'hound\',\n    \'house\',\n    \'hovel\',\n    \'hover\',\n    \'howdy\',\n    \'hubby\',\n    \'human\',\n    \'humid\',\n    \'humus\',\n    \'hunch\',\n    \'hurry\',\n    \'hurty\',\n    \'husky\',\n    \'hutch\',\n    \'hydra\',\n    \'hydro\',\n    \'hyena\',\n    \'hying\',\n    \'hymen\',\n    \'ideal\',\n    \'idiom\',\n    \'idiot\',\n    \'idyll\',\n    \'igloo\',\n    \'ileum\',\n    \'iliac\',\n    \'image\',\n    \'imbue\',\n    \'impel\',\n    \'inane\',\n    \'inapt\',\n    \'incur\',\n    \'index\',\n    \'inept\',\n    \'inert\',\n    \'infer\',\n    \'infix\',\n    \'infra\',\n    \'ingot\',\n    \'inlay\',\n    \'inlet\',\n    \'inner\',\n    \'input\',\n    \'inset\',\n    \'inter\',\n    \'inure\',\n    \'ionic\',\n    \'irate\',\n    \'irony\',\n    \'issue\',\n    \'ivory\',\n    \'jazzy\',\n    \'jelly\',\n    \'jenny\',\n    \'jerky\',\n    \'jerry\',\n    \'jewel\',\n    \'jiffy\',\n    \'jimmy\',\n    \'joint\',\n    \'jolly\',\n    \'joule\',\n    \'joust\',\n    \'jowly\',\n    \'judge\',\n    \'juice\',\n    \'juicy\',\n    \'julep\',\n    \'jumbo\',\n    \'jumpy\',\n    \'junco\',\n    \'junky\',\n    \'junta\',\n    \'juror\',\n    \'kapok\',\n    \'kappa\',\n    \'karma\',\n    \'kazoo\',\n    \'kelly\',\n    \'kerry\',\n    \'ketch\',\n    \'keyed\',\n    \'khaki\',\n    \'kinky\',\n    \'kiosk\',\n    \'kitty\',\n    \'knack\',\n    \'knead\',\n    \'kneel\',\n    \'knell\',\n    \'knelt\',\n    \'knick\',\n    \'knife\',\n    \'knock\',\n    \'knoll\',\n    \'known\',\n    \'knurl\',\n    \'koala\',\n    \'kodak\',\n    \'kombu\',\n    \'kraft\',\n    \'kraut\',\n    \'kudzu\',\n    \'kulak\',\n    \'label\',\n    \'labia\',\n    \'laden\',\n    \'ladle\',\n    \'lager\',\n    \'laity\',\n    \'lance\',\n    \'lanky\',\n    \'lapel\',\n    \'lapse\',\n    \'larch\',\n    \'large\',\n    \'larva\',\n    \'lasso\',\n    \'latch\',\n    \'later\',\n    \'latex\',\n    \'lathe\',\n    \'latus\',\n    \'laugh\',\n    \'laura\',\n    \'layup\',\n    \'leach\',\n    \'leafy\',\n    \'leaky\',\n    \'leapt\',\n    \'learn\',\n    \'lease\',\n    \'leash\',\n    \'least\',\n    \'leave\',\n    \'ledge\',\n    \'leech\',\n    \'leery\',\n    \'lefty\',\n    \'legal\',\n    \'leggy\',\n    \'lemma\',\n    \'lemon\',\n    \'leper\',\n    \'levee\',\n    \'level\',\n    \'lever\',\n    \'lewis\',\n    \'libel\',\n    \'light\',\n    \'liken\',\n    \'lilac\',\n    \'limbo\',\n    \'limit\',\n    \'linen\',\n    \'lingo\',\n    \'lipid\',\n    \'lisle\',\n    \'lithe\',\n    \'liven\',\n    \'livid\',\n    \'livre\',\n    \'loamy\',\n    \'loath\',\n    \'lobar\',\n    \'lobby\',\n    \'local\',\n    \'locus\',\n    \'lodge\',\n    \'loess\',\n    \'lofty\',\n    \'logic\',\n    \'lolly\',\n    \'loose\',\n    \'lossy\',\n    \'lotus\',\n    \'louse\',\n    \'lousy\',\n    \'lower\',\n    \'loyal\',\n    \'lucid\',\n    \'lucky\',\n    \'lucre\',\n    \'luger\',\n    \'lumen\',\n    \'lumpy\',\n    \'lunar\',\n    \'lunch\',\n    \'lunge\',\n    \'lurch\',\n    \'lurid\',\n    \'lusty\',\n    \'lying\',\n    \'lymph\',\n    \'lynch\',\n    \'lyric\',\n    \'macho\',\n    \'macro\',\n    \'madam\',\n    \'magic\',\n    \'magma\',\n    \'magna\',\n    \'major\',\n    \'mambo\',\n    \'mamma\',\n    \'mange\',\n    \'mania\',\n    \'manic\',\n    \'manna\',\n    \'manor\',\n    \'manse\',\n    \'maple\',\n    \'march\',\n    \'maria\',\n    \'marry\',\n    \'marsh\',\n    \'maser\',\n    \'mason\',\n    \'match\',\n    \'mater\',\n    \'matte\',\n    \'mauve\',\n    \'maxim\',\n    \'maybe\',\n    \'mayor\',\n    \'mayst\',\n    \'mealy\',\n    \'meant\',\n    \'meaty\',\n    \'mecum\',\n    \'medal\',\n    \'media\',\n    \'medic\',\n    \'melee\',\n    \'melon\',\n    \'mercy\',\n    \'merge\',\n    \'merit\',\n    \'merry\',\n    \'meson\',\n    \'messy\',\n    \'metal\',\n    \'meter\',\n    \'metro\',\n    \'mezzo\',\n    \'micro\',\n    \'midge\',\n    \'midst\',\n    \'might\',\n    \'milch\',\n    \'milky\',\n    \'mimic\',\n    \'mince\',\n    \'minim\',\n    \'minor\',\n    \'minot\',\n    \'minus\',\n    \'mirth\',\n    \'miser\',\n    \'misty\',\n    \'mitre\',\n    \'mixup\',\n    \'modal\',\n    \'model\',\n    \'modem\',\n    \'modus\',\n    \'moire\',\n    \'moist\',\n    \'molal\',\n    \'molar\',\n    \'mommy\',\n    \'monad\',\n    \'monel\',\n    \'money\',\n    \'monic\',\n    \'monte\',\n    \'month\',\n    \'moody\',\n    \'moose\',\n    \'moral\',\n    \'morel\',\n    \'moron\',\n    \'mossy\',\n    \'motel\',\n    \'motet\',\n    \'motif\',\n    \'motor\',\n    \'motto\',\n    \'mould\',\n    \'mound\',\n    \'mount\',\n    \'mourn\',\n    \'mouse\',\n    \'mousy\',\n    \'mouth\',\n    \'movie\',\n    \'mucus\',\n    \'muddy\',\n    \'muggy\',\n    \'mugho\',\n    \'mulch\',\n    \'mulct\',\n    \'multi\',\n    \'mummy\',\n    \'munch\',\n    \'mural\',\n    \'murky\',\n    \'murre\',\n    \'mushy\',\n    \'music\',\n    \'musty\',\n    \'mylar\',\n    \'mynah\',\n    \'myrrh\',\n    \'nabla\',\n    \'nadir\',\n    \'naiad\',\n    \'naive\',\n    \'naked\',\n    \'nasal\',\n    \'nasty\',\n    \'natal\',\n    \'natty\',\n    \'naval\',\n    \'navel\',\n    \'neath\',\n    \'needy\',\n    \'nerve\',\n    \'never\',\n    \'newel\',\n    \'niche\',\n    \'niece\',\n    \'night\',\n    \'ninth\',\n    \'nitty\',\n    \'noble\',\n    \'nodal\',\n    \'noise\',\n    \'noisy\',\n    \'nomad\',\n    \'nonce\',\n    \'noose\',\n    \'north\',\n    \'notch\',\n    \'novel\',\n    \'nudge\',\n    \'nurse\',\n    \'nylon\',\n    \'nymph\',\n    \'oaken\',\n    \'oases\',\n    \'oasis\',\n    \'obese\',\n    \'objet\',\n    \'occur\',\n    \'ocean\',\n    \'octal\',\n    \'octet\',\n    \'odium\',\n    \'offal\',\n    \'offer\',\n    \'often\',\n    \'ohmic\',\n    \'olden\',\n    \'olive\',\n    \'omega\',\n    \'onion\',\n    \'onset\',\n    \'opera\',\n    \'opine\',\n    \'opium\',\n    \'optic\',\n    \'orate\',\n    \'orbit\',\n    \'order\',\n    \'organ\',\n    \'osier\',\n    \'other\',\n    \'otter\',\n    \'ought\',\n    \'ounce\',\n    \'ouvre\',\n    \'ouzel\',\n    \'ovary\',\n    \'ovate\',\n    \'overt\',\n    \'owing\',\n    \'oxeye\',\n    \'oxide\',\n    \'ozone\',\n    \'paddy\',\n    \'padre\',\n    \'paean\',\n    \'pagan\',\n    \'paint\',\n    \'palsy\',\n    \'pampa\',\n    \'panda\',\n    \'panel\',\n    \'panic\',\n    \'pansy\',\n    \'panty\',\n    \'papal\',\n    \'papaw\',\n    \'paper\',\n    \'pappy\',\n    \'parch\',\n    \'parry\',\n    \'parse\',\n    \'party\',\n    \'pasha\',\n    \'passe\',\n    \'paste\',\n    \'pasty\',\n    \'patch\',\n    \'pater\',\n    \'patio\',\n    \'patty\',\n    \'pause\',\n    \'peace\',\n    \'peach\',\n    \'peaky\',\n    \'pearl\',\n    \'pecan\',\n    \'pedal\',\n    \'peepy\',\n    \'penal\',\n    \'pence\',\n    \'penis\',\n    \'penna\',\n    \'penny\',\n    \'peony\',\n    \'peppy\',\n    \'perch\',\n    \'peril\',\n    \'perky\',\n    \'peste\',\n    \'petal\',\n    \'petit\',\n    \'petri\',\n    \'petty\',\n    \'pewee\',\n    \'phage\',\n    \'phase\',\n    \'phlox\',\n    \'phone\',\n    \'phony\',\n    \'photo\',\n    \'phyla\',\n    \'piano\',\n    \'picky\',\n    \'piece\',\n    \'piety\',\n    \'piggy\',\n    \'pilot\',\n    \'pinch\',\n    \'pinto\',\n    \'pious\',\n    \'pique\',\n    \'pitch\',\n    \'pithy\',\n    \'pivot\',\n    \'pixel\',\n    \'pizza\',\n    \'place\',\n    \'plaid\',\n    \'plain\',\n    \'plane\',\n    \'plank\',\n    \'plant\',\n    \'plasm\',\n    \'plate\',\n    \'playa\',\n    \'plaza\',\n    \'plead\',\n    \'pleat\',\n    \'pluck\',\n    \'plumb\',\n    \'plume\',\n    \'plump\',\n    \'plunk\',\n    \'plush\',\n    \'poach\',\n    \'pocus\',\n    \'podge\',\n    \'podia\',\n    \'poesy\',\n    \'point\',\n    \'poise\',\n    \'polar\',\n    \'polio\',\n    \'polis\',\n    \'polka\',\n    \'pooch\',\n    \'poppy\',\n    \'porch\',\n    \'posey\',\n    \'posit\',\n    \'posse\',\n    \'pouch\',\n    \'pound\',\n    \'power\',\n    \'prank\',\n    \'preen\',\n    \'press\',\n    \'prexy\',\n    \'price\',\n    \'prick\',\n    \'pride\',\n    \'prima\',\n    \'prime\',\n    \'primp\',\n    \'print\',\n    \'prior\',\n    \'prism\',\n    \'privy\',\n    \'prize\',\n    \'probe\',\n    \'prone\',\n    \'prong\',\n    \'proof\',\n    \'prose\',\n    \'proud\',\n    \'prove\',\n    \'prowl\',\n    \'proxy\',\n    \'prune\',\n    \'psalm\',\n    \'psych\',\n    \'puffy\',\n    \'pulse\',\n    \'punch\',\n    \'punky\',\n    \'pupal\',\n    \'pupil\',\n    \'puppy\',\n    \'purge\',\n    \'purse\',\n    \'pussy\',\n    \'putty\',\n    \'pygmy\',\n    \'quack\',\n    \'quaff\',\n    \'quail\',\n    \'quake\',\n    \'qualm\',\n    \'quark\',\n    \'quart\',\n    \'quash\',\n    \'quasi\',\n    \'queen\',\n    \'queer\',\n    \'quell\',\n    \'query\',\n    \'quest\',\n    \'queue\',\n    \'quick\',\n    \'quiet\',\n    \'quill\',\n    \'quilt\',\n    \'quint\',\n    \'quirk\',\n    \'quirt\',\n    \'quite\',\n    \'quota\',\n    \'quote\',\n    \'rabat\',\n    \'rabbi\',\n    \'rabid\',\n    \'radar\',\n    \'radii\',\n    \'radio\',\n    \'radix\',\n    \'radon\',\n    \'rainy\',\n    \'raise\',\n    \'rajah\',\n    \'rally\',\n    \'ranch\',\n    \'randy\',\n    \'range\',\n    \'rangy\',\n    \'rapid\',\n    \'rater\',\n    \'ratio\',\n    \'ratty\',\n    \'ravel\',\n    \'raven\',\n    \'razor\',\n    \'reach\',\n    \'ready\',\n    \'realm\',\n    \'reave\',\n    \'rebel\',\n    \'rebut\',\n    \'recur\',\n    \'reedy\',\n    \'reeve\',\n    \'refer\',\n    \'regal\',\n    \'reign\',\n    \'relic\',\n    \'reman\',\n    \'remit\',\n    \'renal\',\n    \'repel\',\n    \'resin\',\n    \'retch\',\n    \'revel\',\n    \'rever\',\n    \'revet\',\n    \'rheum\',\n    \'rhino\',\n    \'rhyme\',\n    \'ridge\',\n    \'rifle\',\n    \'right\',\n    \'rigid\',\n    \'rilly\',\n    \'rinse\',\n    \'ripen\',\n    \'risen\',\n    \'risky\',\n    \'rival\',\n    \'riven\',\n    \'river\',\n    \'rivet\',\n    \'roach\',\n    \'roast\',\n    \'robin\',\n    \'robot\',\n    \'rocky\',\n    \'rodeo\',\n    \'rogue\',\n    \'rondo\',\n    \'rooky\',\n    \'roomy\',\n    \'roost\',\n    \'rotor\',\n    \'rouge\',\n    \'rough\',\n    \'round\',\n    \'rouse\',\n    \'route\',\n    \'rowdy\',\n    \'royal\',\n    \'ruddy\',\n    \'rumen\',\n    \'rummy\',\n    \'runic\',\n    \'runty\',\n    \'rupee\',\n    \'rural\',\n    \'rusty\',\n    \'rutty\',\n    \'sable\',\n    \'sabra\',\n    \'saint\',\n    \'salad\',\n    \'sally\',\n    \'salon\',\n    \'salty\',\n    \'salve\',\n    \'salvo\',\n    \'samba\',\n    \'sandy\',\n    \'sappy\',\n    \'satan\',\n    \'satin\',\n    \'satyr\',\n    \'sauce\',\n    \'saucy\',\n    \'saute\',\n    \'savoy\',\n    \'savvy\',\n    \'scald\',\n    \'scale\',\n    \'scalp\',\n    \'scamp\',\n    \'scant\',\n    \'scare\',\n    \'scarf\',\n    \'scary\',\n    \'scaup\',\n    \'scene\',\n    \'scent\',\n    \'scion\',\n    \'scoff\',\n    \'scold\',\n    \'scoop\',\n    \'scoot\',\n    \'scope\',\n    \'scops\',\n    \'score\',\n    \'scorn\',\n    \'scour\',\n    \'scout\',\n    \'scowl\',\n    \'scram\',\n    \'scrap\',\n    \'screw\',\n    \'scrim\',\n    \'scrub\',\n    \'scuba\',\n    \'scuff\',\n    \'scull\',\n    \'seamy\',\n    \'sedan\',\n    \'seder\',\n    \'sedge\',\n    \'seedy\',\n    \'seize\',\n    \'senor\',\n    \'sense\',\n    \'sepal\',\n    \'sepia\',\n    \'septa\',\n    \'serge\',\n    \'serif\',\n    \'serum\',\n    \'serve\',\n    \'servo\',\n    \'setup\',\n    \'seven\',\n    \'sever\',\n    \'shack\',\n    \'shade\',\n    \'shady\',\n    \'shaft\',\n    \'shake\',\n    \'shako\',\n    \'shaky\',\n    \'shale\',\n    \'shall\',\n    \'shame\',\n    \'shank\',\n    \'shape\',\n    \'shard\',\n    \'share\',\n    \'shark\',\n    \'sharp\',\n    \'shave\',\n    \'shawl\',\n    \'sheaf\',\n    \'shear\',\n    \'sheen\',\n    \'sheep\',\n    \'sheer\',\n    \'sheet\',\n    \'sheik\',\n    \'shelf\',\n    \'shell\',\n    \'shied\',\n    \'shift\',\n    \'shill\',\n    \'shine\',\n    \'shiny\',\n    \'shire\',\n    \'shirk\',\n    \'shirt\',\n    \'shish\',\n    \'shoal\',\n    \'shock\',\n    \'shoji\',\n    \'shone\',\n    \'shook\',\n    \'shoot\',\n    \'shore\',\n    \'short\',\n    \'shout\',\n    \'shove\',\n    \'shown\',\n    \'showy\',\n    \'shred\',\n    \'shrew\',\n    \'shrub\',\n    \'shrug\',\n    \'shuck\',\n    \'shunt\',\n    \'sibyl\',\n    \'sidle\',\n    \'siege\',\n    \'sieve\',\n    \'sight\',\n    \'sigma\',\n    \'silky\',\n    \'silly\',\n    \'silty\',\n    \'since\',\n    \'sinew\',\n    \'singe\',\n    \'sinus\',\n    \'siren\',\n    \'sisal\',\n    \'situs\',\n    \'sixth\',\n    \'sixty\',\n    \'skate\',\n    \'skeet\',\n    \'skied\',\n    \'skiff\',\n    \'skill\',\n    \'skimp\',\n    \'skirt\',\n    \'skulk\',\n    \'skull\',\n    \'skunk\',\n    \'slack\',\n    \'slain\',\n    \'slake\',\n    \'slang\',\n    \'slant\',\n    \'slash\',\n    \'slate\',\n    \'slave\',\n    \'sleek\',\n    \'sleep\',\n    \'sleet\',\n    \'slept\',\n    \'slice\',\n    \'slick\',\n    \'slide\',\n    \'slime\',\n    \'slimy\',\n    \'sling\',\n    \'sloop\',\n    \'slope\',\n    \'slosh\',\n    \'sloth\',\n    \'slump\',\n    \'slung\',\n    \'slurp\',\n    \'smack\',\n    \'small\',\n    \'smart\',\n    \'smash\',\n    \'smear\',\n    \'smell\',\n    \'smelt\',\n    \'smile\',\n    \'smirk\',\n    \'smith\',\n    \'smoke\',\n    \'smoky\',\n    \'snack\',\n    \'snafu\',\n    \'snail\',\n    \'snake\',\n    \'snare\',\n    \'snark\',\n    \'snarl\',\n    \'sneak\',\n    \'sneer\',\n    \'snell\',\n    \'snick\',\n    \'sniff\',\n    \'snipe\',\n    \'snook\',\n    \'snoop\',\n    \'snore\',\n    \'snort\',\n    \'snout\',\n    \'snowy\',\n    \'snuff\',\n    \'soapy\',\n    \'sober\',\n    \'soggy\',\n    \'solar\',\n    \'solid\',\n    \'solve\',\n    \'somal\',\n    \'sonar\',\n    \'sonic\',\n    \'sonny\',\n    \'sooth\',\n    \'sorry\',\n    \'sough\',\n    \'sound\',\n    \'south\',\n    \'space\',\n    \'spade\',\n    \'spare\',\n    \'spark\',\n    \'spasm\',\n    \'spate\',\n    \'spawn\',\n    \'speak\',\n    \'spear\',\n    \'speck\',\n    \'speed\',\n    \'spell\',\n    \'spend\',\n    \'spent\',\n    \'sperm\',\n    \'spice\',\n    \'spicy\',\n    \'spike\',\n    \'spiky\',\n    \'spill\',\n    \'spilt\',\n    \'spine\',\n    \'spiny\',\n    \'spire\',\n    \'spite\',\n    \'spitz\',\n    \'splat\',\n    \'splay\',\n    \'split\',\n    \'spoil\',\n    \'spoke\',\n    \'spoof\',\n    \'spook\',\n    \'spool\',\n    \'spoon\',\n    \'spore\',\n    \'sport\',\n    \'spout\',\n    \'spray\',\n    \'spree\',\n    \'sprig\',\n    \'sprue\',\n    \'spume\',\n    \'spunk\',\n    \'spurn\',\n    \'spurt\',\n    \'squad\',\n    \'squat\',\n    \'squaw\',\n    \'squid\',\n    \'stack\',\n    \'staff\',\n    \'stage\',\n    \'stagy\',\n    \'staid\',\n    \'stain\',\n    \'stair\',\n    \'stake\',\n    \'stale\',\n    \'stalk\',\n    \'stall\',\n    \'stamp\',\n    \'stand\',\n    \'stank\',\n    \'staph\',\n    \'stare\',\n    \'stark\',\n    \'start\',\n    \'stash\',\n    \'state\',\n    \'stave\',\n    \'stead\',\n    \'steak\',\n    \'steal\',\n    \'steam\',\n    \'steed\',\n    \'steel\',\n    \'steep\',\n    \'steer\',\n    \'stein\',\n    \'stern\',\n    \'stick\',\n    \'stiff\',\n    \'stile\',\n    \'still\',\n    \'stilt\',\n    \'sting\',\n    \'stink\',\n    \'stint\',\n    \'stock\',\n    \'stoic\',\n    \'stoke\',\n    \'stole\',\n    \'stomp\',\n    \'stone\',\n    \'stony\',\n    \'stood\',\n    \'stool\',\n    \'stoop\',\n    \'store\',\n    \'stork\',\n    \'storm\',\n    \'story\',\n    \'stout\',\n    \'stove\',\n    \'strap\',\n    \'straw\',\n    \'stray\',\n    \'strip\',\n    \'strop\',\n    \'strum\',\n    \'strut\',\n    \'stuck\',\n    \'study\',\n    \'stuff\',\n    \'stump\',\n    \'stung\',\n    \'stunk\',\n    \'stunt\',\n    \'style\',\n    \'styli\',\n    \'suave\',\n    \'sugar\',\n    \'suite\',\n    \'sulfa\',\n    \'sulky\',\n    \'sully\',\n    \'sumac\',\n    \'sunny\',\n    \'super\',\n    \'supra\',\n    \'surge\',\n    \'sushi\',\n    \'swage\',\n    \'swain\',\n    \'swami\',\n    \'swamp\',\n    \'swank\',\n    \'swarm\',\n    \'swart\',\n    \'swath\',\n    \'swear\',\n    \'sweat\',\n    \'sweep\',\n    \'sweet\',\n    \'swell\',\n    \'swelt\',\n    \'swept\',\n    \'swift\',\n    \'swine\',\n    \'swing\',\n    \'swipe\',\n    \'swirl\',\n    \'swish\',\n    \'swiss\',\n    \'swoop\',\n    \'sword\',\n    \'swore\',\n    \'sworn\',\n    \'swung\',\n    \'synod\',\n    \'syrup\',\n    \'table\',\n    \'taboo\',\n    \'tacit\',\n    \'tacky\',\n    \'taffy\',\n    \'taint\',\n    \'taken\',\n    \'talky\',\n    \'tally\',\n    \'talon\',\n    \'talus\',\n    \'tango\',\n    \'tangy\',\n    \'tansy\',\n    \'taper\',\n    \'tapir\',\n    \'tapis\',\n    \'tappa\',\n    \'tardy\',\n    \'tarry\',\n    \'taste\',\n    \'tasty\',\n    \'tater\',\n    \'tatty\',\n    \'taunt\',\n    \'tawny\',\n    \'teach\',\n    \'tease\',\n    \'tecum\',\n    \'teeth\',\n    \'tempo\',\n    \'tempt\',\n    \'tenet\',\n    \'tenon\',\n    \'tenor\',\n    \'tense\',\n    \'tenth\',\n    \'tepee\',\n    \'tepid\',\n    \'terry\',\n    \'terse\',\n    \'testy\',\n    \'thank\',\n    \'theft\',\n    \'their\',\n    \'theme\',\n    \'there\',\n    \'these\',\n    \'theta\',\n    \'thick\',\n    \'thief\',\n    \'thigh\',\n    \'thine\',\n    \'thing\',\n    \'think\',\n    \'third\',\n    \'thong\',\n    \'thorn\',\n    \'those\',\n    \'three\',\n    \'threw\',\n    \'throb\',\n    \'throw\',\n    \'thrum\',\n    \'thumb\',\n    \'thump\',\n    \'thyme\',\n    \'tibet\',\n    \'tibia\',\n    \'tidal\',\n    \'tiger\',\n    \'tight\',\n    \'tilde\',\n    \'tilth\',\n    \'timid\',\n    \'tinge\',\n    \'tippy\',\n    \'tipsy\',\n    \'tithe\',\n    \'title\',\n    \'toady\',\n    \'toast\',\n    \'today\',\n    \'token\',\n    \'tommy\',\n    \'tonal\',\n    \'tonic\',\n    \'tooth\',\n    \'topaz\',\n    \'topic\',\n    \'torah\',\n    \'torch\',\n    \'torso\',\n    \'torus\',\n    \'total\',\n    \'totem\',\n    \'touch\',\n    \'tough\',\n    \'towel\',\n    \'tower\',\n    \'toxic\',\n    \'toxin\',\n    \'trace\',\n    \'track\',\n    \'tract\',\n    \'trade\',\n    \'trail\',\n    \'train\',\n    \'trait\',\n    \'tramp\',\n    \'trash\',\n    \'trawl\',\n    \'tread\',\n    \'treat\',\n    \'trend\',\n    \'tress\',\n    \'triac\',\n    \'triad\',\n    \'trial\',\n    \'tribe\',\n    \'trick\',\n    \'tried\',\n    \'trill\',\n    \'tripe\',\n    \'trite\',\n    \'troll\',\n    \'troop\',\n    \'trout\',\n    \'truce\',\n    \'truck\',\n    \'truly\',\n    \'trump\',\n    \'trunk\',\n    \'truss\',\n    \'trust\',\n    \'truth\',\n    \'tulip\',\n    \'tulle\',\n    \'tunic\',\n    \'tuple\',\n    \'turvy\',\n    \'tutor\',\n    \'twain\',\n    \'tweak\',\n    \'tweed\',\n    \'twice\',\n    \'twill\',\n    \'twine\',\n    \'twirl\',\n    \'twist\',\n    \'tying\',\n    \'typic\',\n    \'ulcer\',\n    \'ultra\',\n    \'umber\',\n    \'umbra\',\n    \'unary\',\n    \'uncle\',\n    \'under\',\n    \'unify\',\n    \'union\',\n    \'unite\',\n    \'unity\',\n    \'until\',\n    \'upend\',\n    \'upper\',\n    \'upset\',\n    \'urban\',\n    \'urine\',\n    \'usage\',\n    \'usher\',\n    \'usual\',\n    \'usurp\',\n    \'usury\',\n    \'utile\',\n    \'utter\',\n    \'vacua\',\n    \'vacuo\',\n    \'vague\',\n    \'valet\',\n    \'valid\',\n    \'value\',\n    \'valve\',\n    \'vapid\',\n    \'vault\',\n    \'vaunt\',\n    \'veery\',\n    \'velar\',\n    \'veldt\',\n    \'venal\',\n    \'venom\',\n    \'verge\',\n    \'versa\',\n    \'verse\',\n    \'verve\',\n    \'vetch\',\n    \'vicar\',\n    \'video\',\n    \'vigil\',\n    \'villa\',\n    \'vinyl\',\n    \'viola\',\n    \'virus\',\n    \'visit\',\n    \'visor\',\n    \'vista\',\n    \'vitae\',\n    \'vital\',\n    \'vitro\',\n    \'vivid\',\n    \'vixen\',\n    \'vocal\',\n    \'vogue\',\n    \'voice\',\n    \'vomit\',\n    \'vouch\',\n    \'vowel\',\n    \'vying\',\n    \'wacke\',\n    \'wacky\',\n    \'wafer\',\n    \'waist\',\n    \'waive\',\n    \'waken\',\n    \'wally\',\n    \'waltz\',\n    \'warty\',\n    \'washy\',\n    \'waste\',\n    \'watch\',\n    \'water\',\n    \'waxen\',\n    \'weary\',\n    \'weave\',\n    \'weber\',\n    \'wedge\',\n    \'weedy\',\n    \'weigh\',\n    \'weird\',\n    \'welsh\',\n    \'whack\',\n    \'whale\',\n    \'wharf\',\n    \'wheat\',\n    \'wheel\',\n    \'whelk\',\n    \'whelm\',\n    \'whelp\',\n    \'where\',\n    \'which\',\n    \'whiff\',\n    \'while\',\n    \'whine\',\n    \'whirl\',\n    \'whish\',\n    \'whisk\',\n    \'white\',\n    \'whole\',\n    \'whoop\',\n    \'whore\',\n    \'whose\',\n    \'widen\',\n    \'widow\',\n    \'width\',\n    \'wield\',\n    \'wince\',\n    \'winch\',\n    \'windy\',\n    \'wishy\',\n    \'wispy\',\n    \'witch\',\n    \'withe\',\n    \'withy\',\n    \'witty\',\n    \'wolve\',\n    \'woman\',\n    \'women\',\n    \'woody\',\n    \'wordy\',\n    \'world\',\n    \'wormy\',\n    \'worry\',\n    \'worse\',\n    \'worst\',\n    \'worth\',\n    \'would\',\n    \'wound\',\n    \'woven\',\n    \'wrack\',\n    \'wrath\',\n    \'wreak\',\n    \'wreck\',\n    \'wrest\',\n    \'wring\',\n    \'wrist\',\n    \'write\',\n    \'wrong\',\n    \'wrote\',\n    \'xenon\',\n    \'xerox\',\n    \'xylem\',\n    \'yacht\',\n    \'yearn\',\n    \'yeast\',\n    \'yield\',\n    \'yodel\',\n    \'yokel\',\n    \'young\',\n    \'youth\',\n    \'yucca\',\n    \'zazen\',\n    \'zebra\',\n    \'zesty\',\n    \'zilch\',\n    \'zippy\',\n    \'zloty\'\n]\n\ndef index():\n    """\n    Splash page\n    """\n    if auth.user_id:\n        redirect(URL(\'default\',\'board\'))\n\n    return dict()\n\n\ndef instructions():\n\n    return dict()\n\n\ndef wordlist():\n    """\n    List of all words used in the game\n    """\n    rows = db(db.wordList.id > 0).select(db.wordList.word)\n    word_list = [r.word for r in rows]\n    a = []\n    b = []\n    c = []\n    d = []\n    e = []\n    f = []\n    g = []\n    h = []\n    i = []\n    j = []\n    k = []\n    l = []\n    m = []\n    n = []\n    o = []\n    p = []\n    q = []\n    r = []\n    s = []\n    t = []\n    u = []\n    v = []\n    w = []\n    x = []\n    y = []\n    z = []\n    for word in word_list:\n        if word[0] == \'a\':\n            a.append(word)\n        if word[0] == \'b\':\n            b.append(word)\n        if word[0] == \'c\':\n            c.append(word)\n        if word[0] == \'d\':\n            d.append(word)\n        if word[0] == \'e\':\n            e.append(word)\n        if word[0] == \'f\':\n            f.append(word)\n        if word[0] == \'g\':\n            g.append(word)\n        if word[0] == \'h\':\n            h.append(word)\n        if word[0] == \'i\':\n            i.append(word)\n        if word[0] == \'j\':\n            j.append(word)\n        if word[0] == \'k\':\n            k.append(word)\n        if word[0] == \'l\':\n            l.append(word)\n        if word[0] == \'m\':\n            m.append(word)\n        if word[0] == \'n\':\n            n.append(word)\n        if word[0] == \'o\':\n            o.append(word)\n        if word[0] == \'p\':\n            p.append(word)\n        if word[0] == \'q\':\n            q.append(word)\n        if word[0] == \'r\':\n            r.append(word)\n        if word[0] == \'s\':\n            s.append(word)\n        if word[0] == \'t\':\n            t.append(word)\n        if word[0] == \'u\':\n            u.append(word)\n        if word[0] == \'v\':\n            v.append(word)\n        if word[0] == \'w\':\n            w.append(word)\n        if word[0] == \'x\':\n            x.append(word)\n        if word[0] == \'y\':\n            y.append(word)\n        if word[0] == \'z\':\n            z.append(word)\n    return dict(a=a, b=b, c=c, d=d, e=e, f=f, g=g, h=h, i=i, j=j, k=k, l=l, m=m,\n                n=n, o=o, p=p, q=q, r=r, s=s, t=t, u=u, v=v, w=w, x=x, y=y, z=z)\n\n\ndef board():\n    """\n    List of playable games\n    """\n    return dict()\n\n\ndef game():\n    """\n    Individual game\n    """\n    game = db(db.games.id == request.args(0)).select().first()\n    rows = db().select(db.wordList.ALL)\n    d = [r.word for r in rows]\n    return dict(targetWord=game.targetWord)\n\n\ndef load_wordlist():\n    """\n    Loads the list of words\n    """\n    rows = db().select(db.wordList.ALL)\n    d = [r.word for r in rows]\n    return response.json(dict(wordList=d))\n\n\n\ndef add_game():\n    """\n    Adds a game to the database\n    Removes a game name from the database\n    """\n    db.games.update_or_insert(targetWord = request.vars.targetWord)\n    db(db.game_names.word == request.vars.targetWord).delete()\n    return \'ok\'\n\ndef send_score():\n    row = db(db.game_names.word == request.vars.targetWord).select();\n    if int(request.vars.score) > row[\'highScore\']:\n        db.games.update(db.games.targetWord == request.vars.targetWord,winner=auth.user_id, highScore = int(request.vars.score))\n    return True;\n\ndef load_games():\n    """\n    Loads the list of created games\n    """\n    rows = db().select(db.games.ALL)\n    d = {r.id: {\'word\': r.targetWord} for r in rows}\n    return response.json(dict(games=d))\n\n\ndef load_game_names():\n    """\n    Loads the list of available game names\n    """\n    rows = db().select(db.game_names.ALL)\n    d2 = [r.word for r in rows]\n    return response.json(dict(game_names=d2))\n\n\ndef user():\n    """\n    exposes:\n    http://..../[app]/default/user/login\n    http://..../[app]/default/user/logout\n    http://..../[app]/default/user/register\n    http://..../[app]/default/user/profile\n    http://..../[app]/default/user/retrieve_password\n    http://..../[app]/default/user/change_password\n    http://..../[app]/default/user/manage_users (requires membership in\n    http://..../[app]/default/user/bulk_register\n    use @auth.requires_login()\n        @auth.requires_membership(\'group name\')\n        @auth.requires_permission(\'read\',\'table name\',record_id)\n    to decorate functions that need access control\n    """\n    return dict(form=auth())\n\n\n@cache.action()\ndef download():\n    """\n    allows downloading of uploaded files\n    http://..../[app]/default/download/[filename]\n    """\n    return response.download(request, db)\n\n\ndef call():\n    """\n    exposes services. for example:\n    http://..../[app]/default/call/jsonrpc\n    decorate with @services.jsonrpc the functions to expose\n    supports xml, json, xmlrpc, jsonrpc, amfrpc, rss, csv\n    """\n    return service()\n\n\n\nresponse._vars=response._caller(send_score)\n'
p7
sS'snapshot'
p8
(dp9
sS'traceback'
p10
S'Traceback (most recent call last):\n  File "/Users/Mvelasquez/Desktop/project-bacon/gluon/restricted.py", line 227, in restricted\n    exec ccode in environment\n  File "/Users/Mvelasquez/Desktop/project-bacon/applications/project_bacon/controllers/default.py", line 2630, in <module>\n  File "/Users/Mvelasquez/Desktop/project-bacon/gluon/globals.py", line 412, in <lambda>\n    self._caller = lambda f: f()\n  File "/Users/Mvelasquez/Desktop/project-bacon/applications/project_bacon/controllers/default.py", line 2569, in send_score\n    if int(request.vars.score) > row[\'highScore\']:\n  File "/Users/Mvelasquez/Desktop/project-bacon/gluon/packages/dal/pydal/objects.py", line 2507, in __getitem__\n    row = self.records[i]\nTypeError: list indices must be integers, not str\n'
p11
s.